Certificate:
    Data:
        Version: 3 (0x2)
        Serial Number:
            7e:a2:8f:13:19:71:9f:33:e5:a0:67:7c:da:ca:fd:49
        Signature Algorithm: sha256WithRSAEncryption
        Issuer: CN=Easy-RSA CA
        Validity
            Not Before: Jun 16 04:35:43 2021 GMT
            Not After : Sep 19 04:35:43 2023 GMT
        Subject: CN=192.168.192.1
        Subject Public Key Info:
            Public Key Algorithm: rsaEncryption
                RSA Public-Key: (2048 bit)
                Modulus:
                    00:9b:97:26:e5:2a:6f:dc:5f:9b:fd:95:4b:00:11:
                    9d:28:c1:ad:18:83:38:41:6c:6d:86:10:c9:52:bd:
                    18:ee:bc:fb:b1:c0:26:44:1d:9d:ff:07:be:66:ad:
                    8b:10:16:18:69:b8:ac:ad:fc:ea:01:13:43:37:0b:
                    a2:93:c2:23:28:2a:c2:3e:94:b4:77:40:dc:10:a4:
                    a2:4b:0f:19:22:7e:46:48:0c:e9:52:93:56:fa:2f:
                    13:d9:24:fc:89:8d:e7:a2:16:7d:cf:d9:3f:08:9b:
                    80:20:f2:05:96:1a:ad:0e:a6:4e:a7:93:5c:57:7f:
                    ee:14:e5:08:62:ef:b2:38:95:31:94:20:38:b4:6a:
                    1f:3c:86:c1:ec:d4:d5:1c:1f:63:23:44:76:59:a3:
                    54:ac:ff:12:a8:bf:5f:a5:fb:a3:77:d7:dc:bb:cf:
                    a9:50:b3:6b:8f:54:08:eb:72:2e:36:d1:62:f5:e1:
                    01:fc:69:2a:67:85:79:ce:66:71:60:dd:38:d2:85:
                    84:13:61:81:28:37:95:13:13:dc:65:92:cd:57:74:
                    b2:0b:50:73:c4:56:a6:48:3b:94:bb:1b:b7:2a:26:
                    07:b2:3d:a7:fa:54:01:b5:d1:9d:04:72:2b:23:69:
                    ef:72:ab:c6:05:e0:16:23:89:dc:97:77:9b:27:e9:
                    17:4b
                Exponent: 65537 (0x10001)
        X509v3 extensions:
            X509v3 Basic Constraints: 
                CA:FALSE
            X509v3 Subject Key Identifier: 
                EF:F2:18:E1:6A:74:A7:15:2D:19:02:77:29:24:08:39:5A:6A:FE:D8
            X509v3 Authority Key Identifier: 
                keyid:5D:90:E5:16:26:E3:54:DD:50:6A:C1:9C:AD:56:68:0A:56:A8:FB:C9
                DirName:/CN=Easy-RSA CA
                serial:6B:3E:55:85:60:7D:E3:86:F0:E1:8D:0E:54:EB:26:89:C6:C9:0E:41

            X509v3 Extended Key Usage: 
                TLS Web Client Authentication
            X509v3 Key Usage: 
                Digital Signature
    Signature Algorithm: sha256WithRSAEncryption
         d7:a4:bd:09:62:6c:61:46:93:ab:b3:75:9a:5a:71:7b:f6:16:
         f8:d1:1b:d8:12:fb:fe:21:45:a6:19:95:ea:6e:96:29:75:47:
         87:e9:29:6f:05:0b:7a:12:0e:b5:d0:aa:06:e7:38:d5:ea:b3:
         b2:3d:ea:5a:5c:99:7e:d0:e9:70:82:c8:75:dc:e8:b9:67:0e:
         5f:1e:ba:a1:48:66:4e:c7:be:59:75:3d:e8:38:4b:f9:3d:9c:
         4f:d7:9f:dd:4b:84:1e:55:55:3f:bd:a7:9d:d9:d8:91:19:45:
         01:14:96:ab:38:c6:23:a5:70:46:4d:71:a4:49:ce:5c:1d:f5:
         61:dd:31:96:54:f7:a2:b9:32:99:9e:a4:d3:ae:bf:f2:c9:81:
         1f:b5:e1:9d:02:4c:fa:2f:69:0d:e4:90:03:00:07:ea:94:10:
         4f:e2:07:a7:82:17:27:6b:12:e7:f7:e6:28:96:19:b8:78:83:
         e2:97:e7:85:b5:db:81:ca:95:74:5a:b3:af:e0:49:98:74:96:
         ab:c9:0d:58:70:2e:6d:71:1a:71:3b:16:6b:ef:cd:b4:d1:5a:
         a0:9e:ce:61:16:fa:71:05:38:38:7f:73:a9:d8:28:eb:69:b1:
         48:72:e4:91:c7:64:70:86:7b:a8:6b:5c:f6:88:57:ab:35:eb:
         27:19:eb:5b
-----BEGIN CERTIFICATE-----
MIIDWzCCAkOgAwIBAgIQfqKPExlxnzPloGd82sr9STANBgkqhkiG9w0BAQsFADAW
MRQwEgYDVQQDDAtFYXN5LVJTQSBDQTAeFw0yMTA2MTYwNDM1NDNaFw0yMzA5MTkw
NDM1NDNaMBgxFjAUBgNVBAMMDTE5Mi4xNjguMTkyLjEwggEiMA0GCSqGSIb3DQEB
AQUAA4IBDwAwggEKAoIBAQCblyblKm/cX5v9lUsAEZ0owa0YgzhBbG2GEMlSvRju
vPuxwCZEHZ3/B75mrYsQFhhpuKyt/OoBE0M3C6KTwiMoKsI+lLR3QNwQpKJLDxki
fkZIDOlSk1b6LxPZJPyJjeeiFn3P2T8Im4Ag8gWWGq0Opk6nk1xXf+4U5Qhi77I4
lTGUIDi0ah88hsHs1NUcH2MjRHZZo1Ss/xKov1+l+6N319y7z6lQs2uPVAjrci42
0WL14QH8aSpnhXnOZnFg3TjShYQTYYEoN5UTE9xlks1XdLILUHPEVqZIO5S7G7cq
JgeyPaf6VAG10Z0Ecisjae9yq8YF4BYjidyXd5sn6RdLAgMBAAGjgaIwgZ8wCQYD
VR0TBAIwADAdBgNVHQ4EFgQU7/IY4Wp0pxUtGQJ3KSQIOVpq/tgwUQYDVR0jBEow
SIAUXZDlFibjVN1QasGcrVZoClao+8mhGqQYMBYxFDASBgNVBAMMC0Vhc3ktUlNB
IENBghRrPlWFYH3jhvDhjQ5U6yaJxskOQTATBgNVHSUEDDAKBggrBgEFBQcDAjAL
BgNVHQ8EBAMCB4AwDQYJKoZIhvcNAQELBQADggEBANekvQlibGFGk6uzdZpacXv2
FvjRG9gS+/4hRaYZlepulil1R4fpKW8FC3oSDrXQqgbnONXqs7I96lpcmX7Q6XCC
yHXc6LlnDl8euqFIZk7Hvll1Peg4S/k9nE/Xn91LhB5VVT+9p53Z2JEZRQEUlqs4
xiOlcEZNcaRJzlwd9WHdMZZU96K5MpmepNOuv/LJgR+14Z0CTPovaQ3kkAMAB+qU
EE/iB6eCFydrEuf35iiWGbh4g+KX54W124HKlXRas6/gSZh0lqvJDVhwLm1xGnE7
FmvvzbTRWqCezmEW+nEFODh/c6nYKOtpsUhy5JHHZHCGe6hrXPaIV6s16ycZ61s=
-----END CERTIFICATE-----
