Certificate:
    Data:
        Version: 3 (0x2)
        Serial Number:
            7a:72:91:d8:65:f3:71:08:1c:ad:37:78:c5:67:35:8b
        Signature Algorithm: sha256WithRSAEncryption
        Issuer: CN=Easy-RSA CA
        Validity
            Not Before: Jun 16 04:33:18 2021 GMT
            Not After : Sep 19 04:33:18 2023 GMT
        Subject: CN=192.168.192.2
        Subject Public Key Info:
            Public Key Algorithm: rsaEncryption
                RSA Public-Key: (2048 bit)
                Modulus:
                    00:ca:25:da:aa:95:74:9f:49:e3:ac:32:6d:8e:cd:
                    6b:83:70:3c:63:11:44:92:48:6d:ca:52:a6:44:b0:
                    8e:30:d0:d3:5b:63:0a:56:98:0d:4d:53:bc:4d:df:
                    01:6f:d6:98:b3:b7:57:b2:95:d9:cd:45:45:77:e1:
                    e2:e0:96:ce:4b:3e:9d:8d:0a:a9:e5:a7:71:9d:f1:
                    b7:0d:4b:05:0e:f9:cc:ee:49:b0:ab:e3:48:67:6d:
                    e6:54:fd:d9:c8:08:19:4f:f3:b1:3d:7f:53:8e:d9:
                    19:54:3e:0a:e7:bc:52:12:6e:b5:30:82:d2:7f:87:
                    38:ae:65:ec:83:1b:ae:79:2b:d9:7f:41:e1:24:50:
                    91:3b:4b:84:85:84:4a:e1:5b:de:51:e9:6e:ab:90:
                    e8:16:76:92:bf:e3:f1:ef:5c:7e:73:1e:aa:d9:13:
                    ed:c5:d2:d2:14:57:da:c2:24:df:5a:fb:91:07:69:
                    1f:2e:91:18:86:bf:b5:ee:c8:34:0a:9f:7e:65:72:
                    44:b2:d4:17:d4:01:78:65:03:97:ae:0d:1a:65:89:
                    96:a3:e9:0c:21:67:de:f7:a1:ee:97:91:a2:1f:b2:
                    a9:23:c5:1c:db:2d:0f:9d:f5:cf:0b:89:8b:f0:53:
                    bf:fe:2d:08:0a:4c:20:21:ab:7e:f5:2e:7a:78:02:
                    fe:45
                Exponent: 65537 (0x10001)
        X509v3 extensions:
            X509v3 Basic Constraints: 
                CA:FALSE
            X509v3 Subject Key Identifier: 
                C9:51:5C:C9:7F:C6:16:BB:7F:2D:B9:E9:F4:AE:84:02:E5:6C:B1:BA
            X509v3 Authority Key Identifier: 
                keyid:5D:90:E5:16:26:E3:54:DD:50:6A:C1:9C:AD:56:68:0A:56:A8:FB:C9
                DirName:/CN=Easy-RSA CA
                serial:6B:3E:55:85:60:7D:E3:86:F0:E1:8D:0E:54:EB:26:89:C6:C9:0E:41

            X509v3 Extended Key Usage: 
                TLS Web Server Authentication
            X509v3 Key Usage: 
                Digital Signature, Key Encipherment
            X509v3 Subject Alternative Name: 
                DNS:192.168.192.2
    Signature Algorithm: sha256WithRSAEncryption
         74:64:a2:de:d6:f2:72:1d:5b:c5:30:3c:2d:70:a0:ee:66:e9:
         b9:d9:f3:48:9b:28:7b:d0:ee:0c:af:44:37:c1:27:af:10:4f:
         42:a1:0a:c1:8b:b2:06:eb:49:c3:0d:6c:bf:f3:33:67:ab:be:
         65:97:f7:9d:ea:a8:70:cc:0c:37:81:18:ae:6a:d2:b9:06:dd:
         e6:5c:e6:9f:a0:04:28:1b:26:2c:cf:34:e7:1e:2a:fe:60:c7:
         08:a8:c7:26:ae:74:4d:1f:8b:42:08:5b:f4:9f:b6:61:a9:b9:
         18:34:af:66:50:94:62:19:0b:a8:55:55:39:9a:14:6f:8f:c1:
         e1:4b:ac:06:12:ce:95:34:01:28:10:55:92:36:ae:a1:3a:b2:
         0f:49:f2:96:d0:b3:0f:a3:e6:13:77:06:62:31:77:33:8f:c7:
         46:c5:e7:3b:65:26:e4:a9:40:5a:6d:bf:e0:7e:1c:98:1c:f8:
         28:95:78:ab:32:15:e2:44:f8:73:33:06:92:56:f6:66:f4:3f:
         61:f7:4d:04:d0:cb:e5:a0:83:99:de:8c:46:e9:65:ef:87:33:
         3b:db:67:b7:4c:7b:01:7e:8b:9e:ff:99:48:fc:d1:8b:0e:e6:
         3d:1a:c9:f9:49:89:f4:db:fd:5d:57:14:07:3f:a5:d4:f5:2c:
         ca:fb:23:a9
-----BEGIN CERTIFICATE-----
MIIDdTCCAl2gAwIBAgIQenKR2GXzcQgcrTd4xWc1izANBgkqhkiG9w0BAQsFADAW
MRQwEgYDVQQDDAtFYXN5LVJTQSBDQTAeFw0yMTA2MTYwNDMzMThaFw0yMzA5MTkw
NDMzMThaMBgxFjAUBgNVBAMMDTE5Mi4xNjguMTkyLjIwggEiMA0GCSqGSIb3DQEB
AQUAA4IBDwAwggEKAoIBAQDKJdqqlXSfSeOsMm2OzWuDcDxjEUSSSG3KUqZEsI4w
0NNbYwpWmA1NU7xN3wFv1pizt1eyldnNRUV34eLgls5LPp2NCqnlp3Gd8bcNSwUO
+czuSbCr40hnbeZU/dnICBlP87E9f1OO2RlUPgrnvFISbrUwgtJ/hziuZeyDG655
K9l/QeEkUJE7S4SFhErhW95R6W6rkOgWdpK/4/HvXH5zHqrZE+3F0tIUV9rCJN9a
+5EHaR8ukRiGv7XuyDQKn35lckSy1BfUAXhlA5euDRpliZaj6QwhZ973oe6XkaIf
sqkjxRzbLQ+d9c8LiYvwU7/+LQgKTCAhq371Lnp4Av5FAgMBAAGjgbwwgbkwCQYD
VR0TBAIwADAdBgNVHQ4EFgQUyVFcyX/GFrt/Lbnp9K6EAuVssbowUQYDVR0jBEow
SIAUXZDlFibjVN1QasGcrVZoClao+8mhGqQYMBYxFDASBgNVBAMMC0Vhc3ktUlNB
IENBghRrPlWFYH3jhvDhjQ5U6yaJxskOQTATBgNVHSUEDDAKBggrBgEFBQcDATAL
BgNVHQ8EBAMCBaAwGAYDVR0RBBEwD4INMTkyLjE2OC4xOTIuMjANBgkqhkiG9w0B
AQsFAAOCAQEAdGSi3tbych1bxTA8LXCg7mbpudnzSJsoe9DuDK9EN8EnrxBPQqEK
wYuyButJww1sv/MzZ6u+ZZf3neqocMwMN4EYrmrSuQbd5lzmn6AEKBsmLM805x4q
/mDHCKjHJq50TR+LQghb9J+2Yam5GDSvZlCUYhkLqFVVOZoUb4/B4UusBhLOlTQB
KBBVkjauoTqyD0nyltCzD6PmE3cGYjF3M4/HRsXnO2Um5KlAWm2/4H4cmBz4KJV4
qzIV4kT4czMGklb2ZvQ/YfdNBNDL5aCDmd6MRull74czO9tnt0x7AX6Lnv+ZSPzR
iw7mPRrJ+UmJ9Nv9XVcUBz+l1PUsyvsjqQ==
-----END CERTIFICATE-----
