Certificate:
    Data:
        Version: 3 (0x2)
        Serial Number:
            6d:63:88:e9:5f:0c:42:25:06:57:8f:9e:c6:f1:a2:35
        Signature Algorithm: sha256WithRSAEncryption
        Issuer: CN=Easy-RSA CA
        Validity
            Not Before: Jun 16 04:32:20 2021 GMT
            Not After : Sep 19 04:32:20 2023 GMT
        Subject: CN=192.168.128.2
        Subject Public Key Info:
            Public Key Algorithm: rsaEncryption
                RSA Public-Key: (2048 bit)
                Modulus:
                    00:cc:bc:e4:b5:23:07:79:db:0a:70:c3:fc:9e:69:
                    ef:57:7d:20:ab:e1:16:8e:3b:1b:03:64:88:ca:c4:
                    be:ca:03:35:25:5c:a8:45:b5:fb:61:91:ff:6c:e8:
                    4a:77:be:a0:c6:b6:e3:d7:b4:8f:57:4c:0a:47:2b:
                    55:00:ea:43:b4:12:04:9b:7d:5c:98:4c:d4:77:73:
                    83:31:93:62:e0:d1:d0:16:e5:dc:f1:5d:53:e7:a0:
                    2a:2b:38:c1:6d:6c:6c:29:f1:7b:7f:21:9c:01:ed:
                    80:28:f3:45:68:5a:2a:d3:02:88:97:93:8c:c8:22:
                    36:db:c7:f8:36:0a:9e:20:d1:94:7f:75:7c:ad:68:
                    b2:74:5a:8e:36:9e:0f:60:bf:2d:69:1d:f0:7d:f3:
                    1e:2e:10:7d:e5:1e:01:cb:12:eb:b2:0e:1f:aa:a3:
                    ae:b0:08:50:3d:7a:06:7e:12:60:9e:a0:ed:38:ab:
                    e9:0e:ab:5f:be:9c:55:8b:50:23:f9:af:f1:0d:4d:
                    bd:a9:2a:d5:1a:b0:97:ea:77:e7:00:01:66:15:0f:
                    c4:1f:9c:f1:f3:71:ac:29:5e:d5:81:f7:dd:a6:4b:
                    79:83:9f:36:f0:e5:d5:01:2f:76:15:6e:fd:79:b4:
                    49:af:a0:81:cf:b5:e7:a3:04:c2:f5:54:6f:60:d1:
                    24:b1
                Exponent: 65537 (0x10001)
        X509v3 extensions:
            X509v3 Basic Constraints: 
                CA:FALSE
            X509v3 Subject Key Identifier: 
                1B:88:0B:4F:BC:0D:98:AD:8C:61:18:B0:D8:8C:12:91:5A:12:34:8D
            X509v3 Authority Key Identifier: 
                keyid:5D:90:E5:16:26:E3:54:DD:50:6A:C1:9C:AD:56:68:0A:56:A8:FB:C9
                DirName:/CN=Easy-RSA CA
                serial:6B:3E:55:85:60:7D:E3:86:F0:E1:8D:0E:54:EB:26:89:C6:C9:0E:41

            X509v3 Extended Key Usage: 
                TLS Web Server Authentication
            X509v3 Key Usage: 
                Digital Signature, Key Encipherment
            X509v3 Subject Alternative Name: 
                DNS:192.168.128.2
    Signature Algorithm: sha256WithRSAEncryption
         71:df:b7:06:b1:4d:bf:ab:e0:4d:15:b1:a6:50:a5:05:94:90:
         af:a9:12:ce:65:32:b3:a6:b0:67:07:83:ee:1f:f1:26:4c:f3:
         d9:e9:f8:3f:51:3c:c6:d2:15:09:51:d7:f2:cb:24:dc:79:b3:
         25:9f:9e:66:66:4c:43:f0:a8:46:a4:89:1e:6f:d5:48:58:a0:
         58:0c:ba:ef:91:43:27:66:60:43:24:9d:49:c1:98:63:e8:09:
         59:9b:50:12:74:39:4a:ab:d9:95:a9:aa:81:0d:eb:fd:7c:3b:
         f1:7e:c1:c4:f9:ad:d5:49:7d:c9:e6:6f:74:be:6d:cc:25:ba:
         06:b1:f4:9a:5f:d8:56:2a:95:f9:71:c8:40:4e:a9:99:a9:00:
         c0:38:db:73:41:6b:58:02:f8:46:c8:3d:3e:dd:8f:68:2c:0d:
         eb:99:e3:15:a5:ce:7f:4c:32:ae:a4:f0:ae:93:89:e0:92:cb:
         3d:cd:a2:53:62:e5:96:14:71:66:ff:ef:5c:a3:32:ab:32:0d:
         ef:a8:53:5e:42:f9:28:11:89:4a:b1:42:a3:76:e1:a9:94:41:
         a1:ee:df:9c:0a:45:d0:7b:3c:59:e9:b2:58:81:bc:ee:ed:a6:
         b4:96:0f:da:3b:68:bc:f9:3a:88:c3:a9:06:c2:9b:36:e2:57:
         72:5b:be:65
-----BEGIN CERTIFICATE-----
MIIDdTCCAl2gAwIBAgIQbWOI6V8MQiUGV4+exvGiNTANBgkqhkiG9w0BAQsFADAW
MRQwEgYDVQQDDAtFYXN5LVJTQSBDQTAeFw0yMTA2MTYwNDMyMjBaFw0yMzA5MTkw
NDMyMjBaMBgxFjAUBgNVBAMMDTE5Mi4xNjguMTI4LjIwggEiMA0GCSqGSIb3DQEB
AQUAA4IBDwAwggEKAoIBAQDMvOS1Iwd52wpww/yeae9XfSCr4RaOOxsDZIjKxL7K
AzUlXKhFtfthkf9s6Ep3vqDGtuPXtI9XTApHK1UA6kO0EgSbfVyYTNR3c4Mxk2Lg
0dAW5dzxXVPnoCorOMFtbGwp8Xt/IZwB7YAo80VoWirTAoiXk4zIIjbbx/g2Cp4g
0ZR/dXytaLJ0Wo42ng9gvy1pHfB98x4uEH3lHgHLEuuyDh+qo66wCFA9egZ+EmCe
oO04q+kOq1++nFWLUCP5r/ENTb2pKtUasJfqd+cAAWYVD8QfnPHzcawpXtWB992m
S3mDnzbw5dUBL3YVbv15tEmvoIHPteejBML1VG9g0SSxAgMBAAGjgbwwgbkwCQYD
VR0TBAIwADAdBgNVHQ4EFgQUG4gLT7wNmK2MYRiw2IwSkVoSNI0wUQYDVR0jBEow
SIAUXZDlFibjVN1QasGcrVZoClao+8mhGqQYMBYxFDASBgNVBAMMC0Vhc3ktUlNB
IENBghRrPlWFYH3jhvDhjQ5U6yaJxskOQTATBgNVHSUEDDAKBggrBgEFBQcDATAL
BgNVHQ8EBAMCBaAwGAYDVR0RBBEwD4INMTkyLjE2OC4xMjguMjANBgkqhkiG9w0B
AQsFAAOCAQEAcd+3BrFNv6vgTRWxplClBZSQr6kSzmUys6awZweD7h/xJkzz2en4
P1E8xtIVCVHX8ssk3HmzJZ+eZmZMQ/CoRqSJHm/VSFigWAy675FDJ2ZgQySdScGY
Y+gJWZtQEnQ5SqvZlamqgQ3r/Xw78X7BxPmt1Ul9yeZvdL5tzCW6BrH0ml/YViqV
+XHIQE6pmakAwDjbc0FrWAL4Rsg9Pt2PaCwN65njFaXOf0wyrqTwrpOJ4JLLPc2i
U2LllhRxZv/vXKMyqzIN76hTXkL5KBGJSrFCo3bhqZRBoe7fnApF0Hs8WemyWIG8
7u2mtJYP2jtovPk6iMOpBsKbNuJXclu+ZQ==
-----END CERTIFICATE-----
